target datalayout = "e-m:e-p270:32:32-p271:32:32-p272:64:64-i64:64-i128:128-f80:128-n8:16:32:64-S128"
target triple = "x86_64-pc-linux-gnu"

%struct.darktable_t = type { %struct.dt_codepath_t, i32, i32, ptr, ptr, ptr, ptr, ptr, ptr, ptr, ptr, ptr, ptr, ptr, ptr, ptr, ptr, ptr, ptr, ptr, ptr, ptr, ptr, ptr, ptr, ptr, ptr, ptr, ptr, ptr, [64 x %struct.dt_pthread_mutex_t], %struct.dt_pthread_mutex_t, %struct.dt_pthread_mutex_t, %struct.dt_pthread_mutex_t, %struct.dt_pthread_mutex_t, %struct.dt_pthread_mutex_t, ptr, ptr, ptr, ptr, ptr, ptr, ptr, ptr, ptr, ptr, ptr, ptr, ptr, %struct.dt_lua_state_t, ptr, double, ptr, i32, [47 x i32], i32, i32, ptr, ptr, %struct.dt_sys_resources_t, %struct.dt_backthumb_t, %struct.dt_gimp_t }
%struct.dt_codepath_t = type { i8, [3 x i8] }
%struct.dt_pthread_mutex_t = type { %union.pthread_mutex_t }
%union.pthread_mutex_t = type { %struct.__pthread_mutex_s }
%struct.__pthread_mutex_s = type { i32, i32, i32, i32, i32, i16, i16, %struct.__pthread_internal_list }
%struct.__pthread_internal_list = type { ptr, ptr }
%struct.dt_lua_state_t = type { i32 }
%struct.dt_sys_resources_t = type { i64, i64, ptr, ptr, i32 }
%struct.dt_backthumb_t = type { double, double, i32, i32, i32, i32 }
%struct.dt_gimp_t = type { i32, ptr, ptr, i32, i32 }
%struct._GdkRGBA = type { double, double, double, double }
%struct.dt_gui_gtk_t = type { ptr, %struct.dt_gui_widgets_t, %struct.dt_gui_scrollbars_t, i32, ptr, i32, [39 x %struct._GdkRGBA], i32, i32, i32, i32, i32, double, double, double, double, ptr, double, double, double, double, i32, i32, [4096 x i8], i32, i32, i32, %struct.dt_pthread_mutex_t }
%struct.dt_gui_widgets_t = type { ptr, ptr, ptr, ptr, i32, i32, i32 }
%struct.dt_gui_scrollbars_t = type { ptr, ptr, i32 }
%struct.dt_ui_t = type { [16 x ptr], [6 x ptr], ptr, ptr, ptr, ptr, ptr, ptr, ptr }
%struct.result_t = type { i32, ptr, ptr, ptr, ptr, ptr }

@darktable = external global %struct.darktable_t, align 8
@.str.20 = private unnamed_addr constant [10 x i8] c"darktable\00", align 1
@.str.67 = private unnamed_addr constant [8 x i8] c"clicked\00", align 1
@.str.86 = private unnamed_addr constant [8 x i8] c"destroy\00", align 1

; Function Attrs: nounwind uwtable
define ptr @dt_ui_main_window(ptr noundef %0) #0 {
  %2 = alloca ptr, align 8
  store ptr %0, ptr %2, align 8, !tbaa !76
  %3 = load ptr, ptr %2, align 8, !tbaa !76
  %4 = getelementptr inbounds nuw %struct.dt_ui_t, ptr %3, i32 0, i32 5
  %5 = load ptr, ptr %4, align 8, !tbaa !77
  ret ptr %5
}

; Function Attrs: nounwind uwtable
define i32 @dt_gui_show_standalone_yes_no_dialog(ptr noundef %0, ptr noundef %1, ptr noundef %2, ptr noundef %3) #0 {
  %5 = alloca ptr, align 8
  %6 = alloca ptr, align 8
  %7 = alloca ptr, align 8
  %8 = alloca ptr, align 8
  %9 = alloca ptr, align 8
  %10 = alloca i32, align 4
  %11 = alloca ptr, align 8
  %12 = alloca ptr, align 8
  %13 = alloca ptr, align 8
  %14 = alloca ptr, align 8
  %15 = alloca ptr, align 8
  %16 = alloca %struct.result_t, align 8
  %17 = alloca ptr, align 8
  store ptr %0, ptr %5, align 8, !tbaa !11
  store ptr %1, ptr %6, align 8, !tbaa !11
  store ptr %2, ptr %7, align 8, !tbaa !11
  store ptr %3, ptr %8, align 8, !tbaa !11
  call void @llvm.lifetime.start.p0(i64 8, ptr %9) #15
  %18 = call ptr @gtk_window_new(i32 noundef 0)
  store ptr %18, ptr %9, align 8, !tbaa !6
  call void @llvm.lifetime.start.p0(i64 4, ptr %10) #15
  %19 = load ptr, ptr getelementptr inbounds nuw (%struct.darktable_t, ptr @darktable, i32 0, i32 52), align 8, !tbaa !258
  %20 = icmp ne ptr %19, null
  %21 = select i1 %20, i32 0, i32 5
  store i32 %21, ptr %10, align 4, !tbaa !17
  %22 = load ptr, ptr %9, align 8, !tbaa !6
  %23 = call i64 @gtk_window_get_type() #16
  %24 = call ptr @g_type_check_instance_cast(ptr noundef %22, i64 noundef %23)
  call void @gtk_window_set_icon_name(ptr noundef %24, ptr noundef @.str.20)
  %25 = load ptr, ptr %9, align 8, !tbaa !6
  %26 = call i64 @gtk_window_get_type() #16
  %27 = call ptr @g_type_check_instance_cast(ptr noundef %25, i64 noundef %26)
  %28 = load ptr, ptr %5, align 8, !tbaa !11
  call void @gtk_window_set_title(ptr noundef %27, ptr noundef %28)
  %29 = load ptr, ptr %9, align 8, !tbaa !6
  %30 = call i64 @g_signal_connect_data(ptr noundef %29, ptr noundef @.str.86, ptr noundef @gtk_main_quit, ptr noundef null, ptr noundef null, i32 noundef 0)
  %31 = load ptr, ptr getelementptr inbounds nuw (%struct.darktable_t, ptr @darktable, i32 0, i32 14), align 8, !tbaa !24
  %32 = icmp ne ptr %31, null
  br i1 %32, label %33, label %64

33:                                               ; preds = %4
  call void @llvm.lifetime.start.p0(i64 8, ptr %11) #15
  %34 = load ptr, ptr getelementptr inbounds nuw (%struct.darktable_t, ptr @darktable, i32 0, i32 14), align 8, !tbaa !24
  %35 = getelementptr inbounds nuw %struct.dt_gui_gtk_t, ptr %34, i32 0, i32 0
  %36 = load ptr, ptr %35, align 8, !tbaa !72
  %37 = call ptr @dt_ui_main_window(ptr noundef %36)
  %38 = call i64 @gtk_window_get_type() #16
  %39 = call ptr @g_type_check_instance_cast(ptr noundef %37, i64 noundef %38)
  store ptr %39, ptr %11, align 8, !tbaa !237
  %40 = load ptr, ptr %9, align 8, !tbaa !6
  %41 = call i64 @gtk_window_get_type() #16
  %42 = call ptr @g_type_check_instance_cast(ptr noundef %40, i64 noundef %41)
  call void @gtk_window_set_modal(ptr noundef %42, i32 noundef 1)
  %43 = load ptr, ptr %11, align 8, !tbaa !237
  %44 = icmp ne ptr %43, null
  br i1 %44, label %45, label %59

45:                                               ; preds = %33
  %46 = load ptr, ptr %11, align 8, !tbaa !237
  %47 = call i64 @gtk_widget_get_type() #16
  %48 = call ptr @g_type_check_instance_cast(ptr noundef %46, i64 noundef %47)
  %49 = call i32 @gtk_widget_get_visible(ptr noundef %48)
  %50 = icmp ne i32 %49, 0
  br i1 %50, label %51, label %59

51:                                               ; preds = %45
  %52 = load ptr, ptr %9, align 8, !tbaa !6
  %53 = call i64 @gtk_window_get_type() #16
  %54 = call ptr @g_type_check_instance_cast(ptr noundef %52, i64 noundef %53)
  %55 = load ptr, ptr %11, align 8, !tbaa !237
  call void @gtk_window_set_transient_for(ptr noundef %54, ptr noundef %55)
  %56 = load ptr, ptr %9, align 8, !tbaa !6
  %57 = call i64 @gtk_window_get_type() #16
  %58 = call ptr @g_type_check_instance_cast(ptr noundef %56, i64 noundef %57)
  call void @gtk_window_set_position(ptr noundef %58, i32 noundef 4)
  br label %63

59:                                               ; preds = %45, %33
  %60 = load ptr, ptr %9, align 8, !tbaa !6
  %61 = call i64 @gtk_window_get_type() #16
  %62 = call ptr @g_type_check_instance_cast(ptr noundef %60, i64 noundef %61)
  call void @gtk_window_set_position(ptr noundef %62, i32 noundef 2)
  br label %63

63:                                               ; preds = %59, %51
  call void @llvm.lifetime.end.p0(i64 8, ptr %11) #15
  br label %68

64:                                               ; preds = %4
  %65 = load ptr, ptr %9, align 8, !tbaa !6
  %66 = call i64 @gtk_window_get_type() #16
  %67 = call ptr @g_type_check_instance_cast(ptr noundef %65, i64 noundef %66)
  call void @gtk_window_set_position(ptr noundef %67, i32 noundef 2)
  br label %68

68:                                               ; preds = %64, %63
  call void @llvm.lifetime.start.p0(i64 8, ptr %12) #15
  %69 = load i32, ptr %10, align 4, !tbaa !17
  %70 = call ptr @gtk_box_new(i32 noundef 1, i32 noundef %69)
  store ptr %70, ptr %12, align 8, !tbaa !6
  %71 = load ptr, ptr %9, align 8, !tbaa !6
  %72 = call i64 @gtk_container_get_type() #16
  %73 = call ptr @g_type_check_instance_cast(ptr noundef %71, i64 noundef %72)
  %74 = load ptr, ptr %12, align 8, !tbaa !6
  call void @gtk_container_add(ptr noundef %73, ptr noundef %74)
  call void @llvm.lifetime.start.p0(i64 8, ptr %13) #15
  %75 = load i32, ptr %10, align 4, !tbaa !17
  %76 = call ptr @gtk_box_new(i32 noundef 0, i32 noundef %75)
  store ptr %76, ptr %13, align 8, !tbaa !6
  %77 = load ptr, ptr %12, align 8, !tbaa !6
  %78 = call i64 @gtk_box_get_type() #16
  %79 = call ptr @g_type_check_instance_cast(ptr noundef %77, i64 noundef %78)
  %80 = load ptr, ptr %13, align 8, !tbaa !6
  %81 = load i32, ptr %10, align 4, !tbaa !17
  call void @gtk_box_pack_start(ptr noundef %79, ptr noundef %80, i32 noundef 1, i32 noundef 1, i32 noundef %81)
  %82 = load i32, ptr %10, align 4, !tbaa !17
  %83 = icmp ne i32 %82, 0
  br i1 %83, label %84, label %91

84:                                               ; preds = %68
  %85 = load ptr, ptr %13, align 8, !tbaa !6
  %86 = call i64 @gtk_box_get_type() #16
  %87 = call ptr @g_type_check_instance_cast(ptr noundef %85, i64 noundef %86)
  %88 = load i32, ptr %10, align 4, !tbaa !17
  %89 = call ptr @gtk_box_new(i32 noundef 1, i32 noundef %88)
  %90 = load i32, ptr %10, align 4, !tbaa !17
  call void @gtk_box_pack_start(ptr noundef %87, ptr noundef %89, i32 noundef 1, i32 noundef 1, i32 noundef %90)
  br label %91

91:                                               ; preds = %84, %68
  call void @llvm.lifetime.start.p0(i64 8, ptr %14) #15
  %92 = call ptr @gtk_label_new(ptr noundef null)
  store ptr %92, ptr %14, align 8, !tbaa !6
  %93 = load ptr, ptr %14, align 8, !tbaa !6
  %94 = call i64 @gtk_label_get_type() #16
  %95 = call ptr @g_type_check_instance_cast(ptr noundef %93, i64 noundef %94)
  %96 = load ptr, ptr %6, align 8, !tbaa !11
  call void @gtk_label_set_markup(ptr noundef %95, ptr noundef %96)
  %97 = load ptr, ptr %13, align 8, !tbaa !6
  %98 = call i64 @gtk_box_get_type() #16
  %99 = call ptr @g_type_check_instance_cast(ptr noundef %97, i64 noundef %98)
  %100 = load ptr, ptr %14, align 8, !tbaa !6
  %101 = load i32, ptr %10, align 4, !tbaa !17
  call void @gtk_box_pack_start(ptr noundef %99, ptr noundef %100, i32 noundef 1, i32 noundef 1, i32 noundef %101)
  %102 = load i32, ptr %10, align 4, !tbaa !17
  %103 = icmp ne i32 %102, 0
  br i1 %103, label %104, label %111

104:                                              ; preds = %91
  %105 = load ptr, ptr %13, align 8, !tbaa !6
  %106 = call i64 @gtk_box_get_type() #16
  %107 = call ptr @g_type_check_instance_cast(ptr noundef %105, i64 noundef %106)
  %108 = load i32, ptr %10, align 4, !tbaa !17
  %109 = call ptr @gtk_box_new(i32 noundef 1, i32 noundef %108)
  %110 = load i32, ptr %10, align 4, !tbaa !17
  call void @gtk_box_pack_start(ptr noundef %107, ptr noundef %109, i32 noundef 1, i32 noundef 1, i32 noundef %110)
  br label %111

111:                                              ; preds = %104, %91
  call void @llvm.lifetime.start.p0(i64 8, ptr %15) #15
  %112 = call ptr @gtk_box_new(i32 noundef 0, i32 noundef 0)
  store ptr %112, ptr %15, align 8, !tbaa !6
  %113 = load ptr, ptr %12, align 8, !tbaa !6
  %114 = call i64 @gtk_box_get_type() #16
  %115 = call ptr @g_type_check_instance_cast(ptr noundef %113, i64 noundef %114)
  %116 = load ptr, ptr %15, align 8, !tbaa !6
  call void @gtk_box_pack_start(ptr noundef %115, ptr noundef %116, i32 noundef 1, i32 noundef 1, i32 noundef 0)
  call void @llvm.lifetime.start.p0(i64 48, ptr %16) #15
  call void @llvm.memset.p0.i64(ptr align 8 %16, i8 0, i64 48, i1 false)
  %117 = getelementptr inbounds nuw %struct.result_t, ptr %16, i32 0, i32 0
  store i32 0, ptr %117, align 8, !tbaa !259
  %118 = getelementptr inbounds nuw %struct.result_t, ptr %16, i32 0, i32 2
  %119 = load ptr, ptr %9, align 8, !tbaa !6
  store ptr %119, ptr %118, align 8, !tbaa !261
  call void @llvm.lifetime.start.p0(i64 8, ptr %17) #15
  %120 = load ptr, ptr %7, align 8, !tbaa !11
  %121 = icmp ne ptr %120, null
  br i1 %121, label %122, label %134

122:                                              ; preds = %111
  %123 = load ptr, ptr %7, align 8, !tbaa !11
  %124 = call ptr @gtk_button_new_with_mnemonic(ptr noundef %123)
  store ptr %124, ptr %17, align 8, !tbaa !6
  %125 = load ptr, ptr %17, align 8, !tbaa !6
  %126 = getelementptr inbounds nuw %struct.result_t, ptr %16, i32 0, i32 5
  store ptr %125, ptr %126, align 8, !tbaa !262
  %127 = load ptr, ptr %17, align 8, !tbaa !6
  %128 = call ptr @g_type_check_instance_cast(ptr noundef %127, i64 noundef 80)
  %129 = call i64 @g_signal_connect_data(ptr noundef %128, ptr noundef @.str.67, ptr noundef @_yes_no_button_handler, ptr noundef %16, ptr noundef null, i32 noundef 0)
  %130 = load ptr, ptr %15, align 8, !tbaa !6
  %131 = call i64 @gtk_box_get_type() #16
  %132 = call ptr @g_type_check_instance_cast(ptr noundef %130, i64 noundef %131)
  %133 = load ptr, ptr %17, align 8, !tbaa !6
  call void @gtk_box_pack_start(ptr noundef %132, ptr noundef %133, i32 noundef 1, i32 noundef 1, i32 noundef 0)
  br label %134

134:                                              ; preds = %122, %111
  %135 = load ptr, ptr %8, align 8, !tbaa !11
  %136 = icmp ne ptr %135, null
  br i1 %136, label %137, label %149

137:                                              ; preds = %134
  %138 = load ptr, ptr %8, align 8, !tbaa !11
  %139 = call ptr @gtk_button_new_with_mnemonic(ptr noundef %138)
  store ptr %139, ptr %17, align 8, !tbaa !6
  %140 = load ptr, ptr %17, align 8, !tbaa !6
  %141 = getelementptr inbounds nuw %struct.result_t, ptr %16, i32 0, i32 4
  store ptr %140, ptr %141, align 8, !tbaa !263
  %142 = load ptr, ptr %17, align 8, !tbaa !6
  %143 = call ptr @g_type_check_instance_cast(ptr noundef %142, i64 noundef 80)
  %144 = call i64 @g_signal_connect_data(ptr noundef %143, ptr noundef @.str.67, ptr noundef @_yes_no_button_handler, ptr noundef %16, ptr noundef null, i32 noundef 0)
  %145 = load ptr, ptr %15, align 8, !tbaa !6
  %146 = call i64 @gtk_box_get_type() #16
  %147 = call ptr @g_type_check_instance_cast(ptr noundef %145, i64 noundef %146)
  %148 = load ptr, ptr %17, align 8, !tbaa !6
  call void @gtk_box_pack_start(ptr noundef %147, ptr noundef %148, i32 noundef 1, i32 noundef 1, i32 noundef 0)
  br label %149

149:                                              ; preds = %137, %134
  %150 = load ptr, ptr %9, align 8, !tbaa !6
  call void @gtk_widget_show_all(ptr noundef %150)
  call void (...) @darktable_splash_screen_destroy()
  %151 = load ptr, ptr %9, align 8, !tbaa !6
  %152 = call i64 @gtk_window_get_type() #16
  %153 = call ptr @g_type_check_instance_cast(ptr noundef %151, i64 noundef %152)
  call void @gtk_window_set_keep_above(ptr noundef %153, i32 noundef 1)
  call void @gtk_main()
  %154 = getelementptr inbounds nuw %struct.result_t, ptr %16, i32 0, i32 0
  %155 = load i32, ptr %154, align 8, !tbaa !259
  %156 = icmp eq i32 %155, 2
  %157 = zext i1 %156 to i32
  call void @llvm.lifetime.end.p0(i64 8, ptr %17) #15
  call void @llvm.lifetime.end.p0(i64 48, ptr %16) #15
  call void @llvm.lifetime.end.p0(i64 8, ptr %15) #15
  call void @llvm.lifetime.end.p0(i64 8, ptr %14) #15
  call void @llvm.lifetime.end.p0(i64 8, ptr %13) #15
  call void @llvm.lifetime.end.p0(i64 8, ptr %12) #15
  call void @llvm.lifetime.end.p0(i64 4, ptr %10) #15
  call void @llvm.lifetime.end.p0(i64 8, ptr %9) #15
  ret i32 %157
}