; Function Attrs: nounwind uwtable
define range(i32 0, 2) i32 @dt_gui_show_standalone_yes_no_dialog(ptr noundef %0, ptr noundef %1, ptr noundef %2, ptr noundef %3) local_unnamed_addr #0 {
  %5 = alloca %struct.result_t, align 8
  %6 = tail call ptr @gtk_window_new(i32 noundef 0) #18
  %7 = load ptr, ptr getelementptr inbounds nuw (i8, ptr @darktable, i64 3120), align 8, !tbaa !205
  %.not = icmp eq ptr %7, null
  %8 = select i1 %.not, i32 5, i32 0
  %9 = tail call i64 @gtk_window_get_type() #19
  %10 = tail call ptr @g_type_check_instance_cast(ptr noundef %6, i64 noundef %9) #18
  tail call void @gtk_window_set_icon_name(ptr noundef %10, ptr noundef nonnull @.str.20) #18
  %11 = tail call ptr @g_type_check_instance_cast(ptr noundef %6, i64 noundef %9) #18
  tail call void @gtk_window_set_title(ptr noundef %11, ptr noundef %0) #18
  %12 = tail call i64 @g_signal_connect_data(ptr noundef %6, ptr noundef nonnull @.str.86, ptr noundef nonnull @gtk_main_quit, ptr noundef null, ptr noundef null, i32 noundef 0) #18
  %13 = load ptr, ptr getelementptr inbounds nuw (i8, ptr @darktable, i64 104), align 8, !tbaa !15
  %.not52 = icmp eq ptr %13, null
  br i1 %.not52, label %26, label %14

14:                                               ; preds = %4
  %15 = load ptr, ptr %13, align 8, !tbaa !63
  %16 = getelementptr inbounds nuw i8, ptr %15, i64 200
  %17 = load ptr, ptr %16, align 8, !tbaa !64
  %18 = tail call ptr @g_type_check_instance_cast(ptr noundef %17, i64 noundef %9) #18
  %19 = tail call ptr @g_type_check_instance_cast(ptr noundef %6, i64 noundef %9) #18
  tail call void @gtk_window_set_modal(ptr noundef %19, i32 noundef 1) #18
  %.not53 = icmp eq ptr %18, null
  br i1 %.not53, label %26, label %20

20:                                               ; preds = %14
  %21 = tail call i64 @gtk_widget_get_type() #19
  %22 = tail call ptr @g_type_check_instance_cast(ptr noundef nonnull %18, i64 noundef %21) #18
  %23 = tail call i32 @gtk_widget_get_visible(ptr noundef %22) #18
  %.not54 = icmp eq i32 %23, 0
  br i1 %.not54, label %26, label %24

24:                                               ; preds = %20
  %25 = tail call ptr @g_type_check_instance_cast(ptr noundef %6, i64 noundef %9) #18
  tail call void @gtk_window_set_transient_for(ptr noundef %25, ptr noundef nonnull %18) #18
  br label %26

26:                                               ; preds = %4, %14, %20, %24
  %.sink57 = phi i32 [ 4, %24 ], [ 2, %20 ], [ 2, %14 ], [ 2, %4 ]
  %27 = tail call ptr @g_type_check_instance_cast(ptr noundef %6, i64 noundef %9) #18
  tail call void @gtk_window_set_position(ptr noundef %27, i32 noundef %.sink57) #18
  %28 = tail call ptr @gtk_box_new(i32 noundef 1, i32 noundef %8) #18
  %29 = tail call i64 @gtk_container_get_type() #19
  %30 = tail call ptr @g_type_check_instance_cast(ptr noundef %6, i64 noundef %29) #18
  tail call void @gtk_container_add(ptr noundef %30, ptr noundef %28) #18
  %31 = tail call ptr @gtk_box_new(i32 noundef 0, i32 noundef %8) #18
  %32 = tail call i64 @gtk_box_get_type() #19
  %33 = tail call ptr @g_type_check_instance_cast(ptr noundef %28, i64 noundef %32) #18
  tail call void @gtk_box_pack_start(ptr noundef %33, ptr noundef %31, i32 noundef 1, i32 noundef 1, i32 noundef %8) #18
  br i1 %.not, label %34, label %.critedge

34:                                               ; preds = %26
  %35 = tail call ptr @g_type_check_instance_cast(ptr noundef %31, i64 noundef %32) #18
  %36 = tail call ptr @gtk_box_new(i32 noundef 1, i32 noundef 5) #18
  tail call void @gtk_box_pack_start(ptr noundef %35, ptr noundef %36, i32 noundef 1, i32 noundef 1, i32 noundef 5) #18
  %37 = tail call ptr @gtk_label_new(ptr noundef null) #18
  %38 = tail call i64 @gtk_label_get_type() #19
  %39 = tail call ptr @g_type_check_instance_cast(ptr noundef %37, i64 noundef %38) #18
  tail call void @gtk_label_set_markup(ptr noundef %39, ptr noundef %1) #18
  %40 = tail call ptr @g_type_check_instance_cast(ptr noundef %31, i64 noundef %32) #18
  tail call void @gtk_box_pack_start(ptr noundef %40, ptr noundef %37, i32 noundef 1, i32 noundef 1, i32 noundef 5) #18
  %41 = tail call ptr @g_type_check_instance_cast(ptr noundef %31, i64 noundef %32) #18
  %42 = tail call ptr @gtk_box_new(i32 noundef 1, i32 noundef 5) #18
  tail call void @gtk_box_pack_start(ptr noundef %41, ptr noundef %42, i32 noundef 1, i32 noundef 1, i32 noundef 5) #18
  br label %47

.critedge:                                        ; preds = %26
  %43 = tail call ptr @gtk_label_new(ptr noundef null) #18
  %44 = tail call i64 @gtk_label_get_type() #19
  %45 = tail call ptr @g_type_check_instance_cast(ptr noundef %43, i64 noundef %44) #18
  tail call void @gtk_label_set_markup(ptr noundef %45, ptr noundef %1) #18
  %46 = tail call ptr @g_type_check_instance_cast(ptr noundef %31, i64 noundef %32) #18
  tail call void @gtk_box_pack_start(ptr noundef %46, ptr noundef %43, i32 noundef 1, i32 noundef 1, i32 noundef 0) #18
  br label %47

47:                                               ; preds = %.critedge, %34
  %48 = tail call ptr @gtk_box_new(i32 noundef 0, i32 noundef 0) #18
  %49 = tail call ptr @g_type_check_instance_cast(ptr noundef %28, i64 noundef %32) #18
  tail call void @gtk_box_pack_start(ptr noundef %49, ptr noundef %48, i32 noundef 1, i32 noundef 1, i32 noundef 0) #18
  call void @llvm.lifetime.start.p0(i64 48, ptr nonnull %5) #18
  %50 = getelementptr inbounds nuw i8, ptr %5, i64 16
  call void @llvm.memset.p0.i64(ptr noundef nonnull align 8 dereferenceable(48) %5, i8 0, i64 48, i1 false)
  store ptr %6, ptr %50, align 8, !tbaa !206
  %.not55 = icmp eq ptr %2, null
  br i1 %.not55, label %57, label %51

51:                                               ; preds = %47
  %52 = tail call ptr @gtk_button_new_with_mnemonic(ptr noundef nonnull %2) #18
  %53 = getelementptr inbounds nuw i8, ptr %5, i64 40
  store ptr %52, ptr %53, align 8, !tbaa !208
  %54 = tail call ptr @g_type_check_instance_cast(ptr noundef %52, i64 noundef 80) #18
  %55 = call i64 @g_signal_connect_data(ptr noundef %54, ptr noundef nonnull @.str.67, ptr noundef nonnull @_yes_no_button_handler, ptr noundef nonnull %5, ptr noundef null, i32 noundef 0) #18
  %56 = call ptr @g_type_check_instance_cast(ptr noundef %48, i64 noundef %32) #18
  call void @gtk_box_pack_start(ptr noundef %56, ptr noundef %52, i32 noundef 1, i32 noundef 1, i32 noundef 0) #18
  br label %57

57:                                               ; preds = %51, %47
  %.not56 = icmp eq ptr %3, null
  br i1 %.not56, label %64, label %58

58:                                               ; preds = %57
  %59 = call ptr @gtk_button_new_with_mnemonic(ptr noundef nonnull %3) #18
  %60 = getelementptr inbounds nuw i8, ptr %5, i64 32
  store ptr %59, ptr %60, align 8, !tbaa !209
  %61 = call ptr @g_type_check_instance_cast(ptr noundef %59, i64 noundef 80) #18
  %62 = call i64 @g_signal_connect_data(ptr noundef %61, ptr noundef nonnull @.str.67, ptr noundef nonnull @_yes_no_button_handler, ptr noundef nonnull %5, ptr noundef null, i32 noundef 0) #18
  %63 = call ptr @g_type_check_instance_cast(ptr noundef %48, i64 noundef %32) #18
  call void @gtk_box_pack_start(ptr noundef %63, ptr noundef %59, i32 noundef 1, i32 noundef 1, i32 noundef 0) #18
  br label %64

64:                                               ; preds = %58, %57
  call void @gtk_widget_show_all(ptr noundef %6) #18
  call void (...) @darktable_splash_screen_destroy() #18
  %65 = call ptr @g_type_check_instance_cast(ptr noundef %6, i64 noundef %9) #18
  call void @gtk_window_set_keep_above(ptr noundef %65, i32 noundef 1) #18
  call void @gtk_main() #18
  %66 = load i32, ptr %5, align 8, !tbaa !210
  %67 = icmp eq i32 %66, 2
  %68 = zext i1 %67 to i32
  call void @llvm.lifetime.end.p0(i64 48, ptr nonnull %5) #18
  ret i32 %68
}